; Function Attrs: mustprogress uwtable
define nonnull ptr @lean_big_uint64_to_nat(i64 noundef %0) local_unnamed_addr #0 personality ptr @__gxx_personality_v0 {
  %2 = alloca %"class.lean::mpz", align 8
  %3 = icmp sgt i64 %0, -1
  br i1 %3, label %4, label %8, !prof !25

4:                                                ; preds = %1
  %5 = shl nuw i64 %0, 1
  %6 = or disjoint i64 %5, 1
  %7 = inttoptr i64 %6 to ptr
  br label %13

8:                                                ; preds = %1
  call void @llvm.lifetime.start.p0(i64 16, ptr nonnull %2) #40
  call void @_ZN4lean3mpzC1Em(ptr noundef nonnull align 8 dereferenceable(16) %2, i64 noundef %0)
  %9 = invoke noundef ptr @_ZN4lean15mpz_to_nat_coreERKNS_3mpzE(ptr noundef nonnull align 8 dereferenceable(16) %2)
          to label %10 unwind label %11

10:                                               ; preds = %8
  call void @_ZN4lean3mpzD1Ev(ptr noundef nonnull align 8 dereferenceable(16) %2) #40
  call void @llvm.lifetime.end.p0(i64 16, ptr nonnull %2) #40
  br label %13

11:                                               ; preds = %8
  %12 = landingpad { ptr, i32 }
          cleanup
  call void @_ZN4lean3mpzD1Ev(ptr noundef nonnull align 8 dereferenceable(16) %2) #40
  call void @llvm.lifetime.end.p0(i64 16, ptr nonnull %2) #40
  resume { ptr, i32 } %12

13:                                               ; preds = %10, %4
  %.0 = phi ptr [ %7, %4 ], [ %9, %10 ]
  ret ptr %.0
}